target datalayout = "e-m:e-p270:32:32-p271:32:32-p272:64:64-i64:64-i128:128-f80:128-n8:16:32:64-S128"
target triple = "x86_64-pc-linux-gnu"

%"class.llvm::MVT" = type { i16 }
%"struct.llvm::MachineValueTypeSet::const_iterator" = type <{ ptr, i32, [4 x i8] }>
%"struct.llvm::MachineValueTypeSet" = type { %"struct.std::array" }
%"struct.std::array" = type { [8 x i64] }
%class.anon.49 = type { i8 }

; Function Attrs: mustprogress nounwind uwtable
define linkonce_odr hidden noundef zeroext i1 @_ZNK4llvm3MVT15isFloatingPointEv(ptr noundef nonnull align 2 dereferenceable(2) %0) #0 comdat align 2 {
  %2 = alloca ptr, align 8
  store ptr %0, ptr %2, align 8
  %3 = load ptr, ptr %2, align 8
  %4 = getelementptr inbounds nuw %"class.llvm::MVT", ptr %3, i32 0, i32 0
  %5 = load i16, ptr %4, align 2
  %6 = zext i16 %5 to i32
  %7 = icmp sge i32 %6, 10
  br i1 %7, label %8, label %13

8:                                                ; preds = %1
  %9 = getelementptr inbounds nuw %"class.llvm::MVT", ptr %3, i32 0, i32 0
  %10 = load i16, ptr %9, align 2
  %11 = zext i16 %10 to i32
  %12 = icmp sle i32 %11, 16
  br i1 %12, label %35, label %13

13:                                               ; preds = %8, %1
  %14 = getelementptr inbounds nuw %"class.llvm::MVT", ptr %3, i32 0, i32 0
  %15 = load i16, ptr %14, align 2
  %16 = zext i16 %15 to i32
  %17 = icmp sge i32 %16, 88
  br i1 %17, label %18, label %23

18:                                               ; preds = %13
  %19 = getelementptr inbounds nuw %"class.llvm::MVT", ptr %3, i32 0, i32 0
  %20 = load i16, ptr %19, align 2
  %21 = zext i16 %20 to i32
  %22 = icmp sle i32 %21, 136
  br i1 %22, label %35, label %23

23:                                               ; preds = %18, %13
  %24 = getelementptr inbounds nuw %"class.llvm::MVT", ptr %3, i32 0, i32 0
  %25 = load i16, ptr %24, align 2
  %26 = zext i16 %25 to i32
  %27 = icmp sge i32 %26, 169
  br i1 %27, label %28, label %33

28:                                               ; preds = %23
  %29 = getelementptr inbounds nuw %"class.llvm::MVT", ptr %3, i32 0, i32 0
  %30 = load i16, ptr %29, align 2
  %31 = zext i16 %30 to i32
  %32 = icmp sle i32 %31, 189
  br label %33

33:                                               ; preds = %28, %23
  %34 = phi i1 [ false, %23 ], [ %32, %28 ]
  br label %35

35:                                               ; preds = %33, %18, %8
  %36 = phi i1 [ true, %18 ], [ true, %8 ], [ %34, %33 ]
  ret i1 %36
}

; Function Attrs: mustprogress nounwind uwtable
define linkonce_odr hidden noundef i32 @_ZN4llvm6detail20TrailingZerosCounterImLm8EE5countEm(i64 noundef %0) #0 comdat align 2 {
  %2 = alloca i32, align 4
  %3 = alloca i64, align 8
  store i64 %0, ptr %3, align 8
  %4 = load i64, ptr %3, align 8
  %5 = icmp eq i64 %4, 0
  br i1 %5, label %6, label %7

6:                                                ; preds = %1
  store i32 64, ptr %2, align 4
  br label %11

7:                                                ; preds = %1
  %8 = load i64, ptr %3, align 8
  %9 = call i64 @llvm.cttz.i64(i64 %8, i1 true)
  %10 = trunc i64 %9 to i32
  store i32 %10, ptr %2, align 4
  br label %11

11:                                               ; preds = %7, %6
  %12 = load i32, ptr %2, align 4
  ret i32 %12
}

; Function Attrs: mustprogress nounwind uwtable
define linkonce_odr noundef i64 @_ZN4llvm16maskTrailingOnesImEET_j(i32 noundef %0) #0 comdat {
  %2 = alloca i64, align 8
  %3 = alloca i32, align 4
  %4 = alloca i32, align 4
  store i32 %0, ptr %3, align 4
  store i32 64, ptr %4, align 4
  %5 = load i32, ptr %3, align 4
  %6 = icmp eq i32 %5, 0
  br i1 %6, label %7, label %8

7:                                                ; preds = %1
  store i64 0, ptr %2, align 8
  br label %13

8:                                                ; preds = %1
  %9 = load i32, ptr %3, align 4
  %10 = sub i32 64, %9
  %11 = zext i32 %10 to i64
  %12 = lshr i64 -1, %11
  store i64 %12, ptr %2, align 8
  br label %13

13:                                               ; preds = %8, %7
  %14 = load i64, ptr %2, align 8
  ret i64 %14
}

; Function Attrs: mustprogress nounwind uwtable
define linkonce_odr hidden noundef nonnull align 8 dereferenceable(8) ptr @_ZNSt14__array_traitsImLm8EE6_S_refERA8_Kmm(ptr noundef nonnull align 8 dereferenceable(64) %0, i64 noundef %1) #0 comdat align 2 {
  %3 = alloca ptr, align 8
  %4 = alloca i64, align 8
  store ptr %0, ptr %3, align 8
  store i64 %1, ptr %4, align 8
  %5 = load ptr, ptr %3, align 8
  %6 = load i64, ptr %4, align 8
  %7 = getelementptr inbounds [8 x i64], ptr %5, i64 0, i64 %6
  ret ptr %7
}

; Function Attrs: mustprogress nounwind uwtable
define internal noundef zeroext i1 @_ZL15isFloatingPointN4llvm3MVTE(i16 %0) #0 {
  %2 = alloca %"class.llvm::MVT", align 2
  %3 = getelementptr inbounds nuw %"class.llvm::MVT", ptr %2, i32 0, i32 0
  store i16 %0, ptr %3, align 2
  %4 = call noundef zeroext i1 @_ZNK4llvm3MVT15isFloatingPointEv(ptr noundef nonnull align 2 dereferenceable(2) %2)
  ret i1 %4
}

; Function Attrs: mustprogress nounwind uwtable
define linkonce_odr noundef i32 @_ZN4llvm11countr_zeroImEEiT_(i64 noundef %0) #0 comdat {
  %2 = alloca i64, align 8
  store i64 %0, ptr %2, align 8
  %3 = load i64, ptr %2, align 8
  %4 = call noundef i32 @_ZN4llvm6detail20TrailingZerosCounterImLm8EE5countEm(i64 noundef %3)
  ret i32 %4
}

; Function Attrs: mustprogress nounwind uwtable
define linkonce_odr noundef i64 @_ZN4llvm15maskLeadingOnesImEET_j(i32 noundef %0) #0 comdat {
  %2 = alloca i32, align 4
  store i32 %0, ptr %2, align 4
  %3 = load i32, ptr %2, align 4
  %4 = zext i32 %3 to i64
  %5 = sub i64 64, %4
  %6 = trunc i64 %5 to i32
  %7 = call noundef i64 @_ZN4llvm16maskTrailingOnesImEET_j(i32 noundef %6)
  %8 = xor i64 %7, -1
  ret i64 %8
}

; Function Attrs: mustprogress nounwind uwtable
define linkonce_odr hidden noundef nonnull align 8 dereferenceable(8) ptr @_ZNKSt5arrayImLm8EEixEm(ptr noundef nonnull align 8 dereferenceable(64) %0, i64 noundef %1) #0 comdat align 2 {
  %3 = alloca ptr, align 8
  %4 = alloca i64, align 8
  store ptr %0, ptr %3, align 8
  store i64 %1, ptr %4, align 8
  %5 = load ptr, ptr %3, align 8
  %6 = getelementptr inbounds nuw %"struct.std::array", ptr %5, i32 0, i32 0
  %7 = load i64, ptr %4, align 8
  %8 = call noundef nonnull align 8 dereferenceable(8) ptr @_ZNSt14__array_traitsImLm8EE6_S_refERA8_Kmm(ptr noundef nonnull align 8 dereferenceable(64) %6, i64 noundef %7) #4
  ret ptr %8
}

; Function Attrs: mustprogress nounwind uwtable
define linkonce_odr hidden noundef nonnull align 8 dereferenceable(8) ptr @_ZNSt5arrayImLm8EEixEm(ptr noundef nonnull align 8 dereferenceable(64) %0, i64 noundef %1) #0 comdat align 2 {
  %3 = alloca ptr, align 8
  %4 = alloca i64, align 8
  store ptr %0, ptr %3, align 8
  store i64 %1, ptr %4, align 8
  %5 = load ptr, ptr %3, align 8
  %6 = getelementptr inbounds nuw %"struct.std::array", ptr %5, i32 0, i32 0
  %7 = load i64, ptr %4, align 8
  %8 = call noundef nonnull align 8 dereferenceable(8) ptr @_ZNSt14__array_traitsImLm8EE6_S_refERA8_Kmm(ptr noundef nonnull align 8 dereferenceable(64) %6, i64 noundef %7) #4
  ret ptr %8
}

; Function Attrs: mustprogress nounwind uwtable
define internal noundef zeroext i1 @"_ZZN4llvm9TypeInfer18EnforceSmallerThanERNS_15TypeSetByHwModeES2_bENK3$_1clENS_3MVTE"(ptr noundef nonnull align 1 dereferenceable(1) %0, i16 %1) #0 align 2 {
  %3 = alloca %"class.llvm::MVT", align 2
  %4 = alloca ptr, align 8
  %5 = alloca %"class.llvm::MVT", align 2
  %6 = getelementptr inbounds nuw %"class.llvm::MVT", ptr %3, i32 0, i32 0
  store i16 %1, ptr %6, align 2
  store ptr %0, ptr %4, align 8
  call void @llvm.memcpy.p0.p0.i64(ptr align 2 %5, ptr align 2 %3, i64 2, i1 false)
  %7 = getelementptr inbounds nuw %"class.llvm::MVT", ptr %5, i32 0, i32 0
  %8 = load i16, ptr %7, align 2
  %9 = call noundef zeroext i1 @_ZL15isFloatingPointN4llvm3MVTE(i16 %8)
  %10 = xor i1 %9, true
  ret i1 %10
}

; Function Attrs: mustprogress nounwind uwtable
define linkonce_odr hidden void @_ZN4llvm3MVTC2ENS0_15SimpleValueTypeE(ptr noundef nonnull align 2 dereferenceable(2) %0, i16 noundef zeroext %1) unnamed_addr #0 comdat align 2 {
  %3 = alloca ptr, align 8
  %4 = alloca i16, align 2
  store ptr %0, ptr %3, align 8
  store i16 %1, ptr %4, align 2
  %5 = load ptr, ptr %3, align 8
  %6 = getelementptr inbounds nuw %"class.llvm::MVT", ptr %5, i32 0, i32 0
  %7 = load i16, ptr %4, align 2
  store i16 %7, ptr %6, align 2
  ret void
}

; Function Attrs: mustprogress nounwind uwtable
define linkonce_odr hidden noundef i32 @_ZNK4llvm19MachineValueTypeSet14const_iterator13find_from_posEj(ptr noundef nonnull align 8 dereferenceable(12) %0, i32 noundef %1) #0 comdat align 2 {
  %3 = alloca i32, align 4
  %4 = alloca ptr, align 8
  %5 = alloca i32, align 4
  %6 = alloca i32, align 4
  %7 = alloca i32, align 4
  %8 = alloca i32, align 4
  %9 = alloca i64, align 8
  %10 = alloca i32, align 4
  %11 = alloca i64, align 8
  store ptr %0, ptr %4, align 8
  store i32 %1, ptr %5, align 4
  %12 = load ptr, ptr %4, align 8
  %13 = load i32, ptr %5, align 4
  %14 = udiv i32 %13, 64
  store i32 %14, ptr %6, align 4
  %15 = load i32, ptr %5, align 4
  %16 = urem i32 %15, 64
  store i32 %16, ptr %7, align 4
  %17 = load i32, ptr %6, align 4
  %18 = mul i32 %17, 64
  store i32 %18, ptr %8, align 4
  %19 = load i32, ptr %7, align 4
  %20 = icmp ne i32 %19, 0
  br i1 %20, label %21, label %46

21:                                               ; preds = %2
  %22 = getelementptr inbounds nuw %"struct.llvm::MachineValueTypeSet::const_iterator", ptr %12, i32 0, i32 0
  %23 = load ptr, ptr %22, align 8
  %24 = getelementptr inbounds nuw %"struct.llvm::MachineValueTypeSet", ptr %23, i32 0, i32 0
  %25 = load i32, ptr %6, align 4
  %26 = zext i32 %25 to i64
  %27 = call noundef nonnull align 8 dereferenceable(8) ptr @_ZNKSt5arrayImLm8EEixEm(ptr noundef nonnull align 8 dereferenceable(64) %24, i64 noundef %26) #4
  %28 = load i64, ptr %27, align 8
  store i64 %28, ptr %9, align 8
  %29 = load i32, ptr %7, align 4
  %30 = sub i32 64, %29
  %31 = call noundef i64 @_ZN4llvm15maskLeadingOnesImEET_j(i32 noundef %30)
  %32 = load i64, ptr %9, align 8
  %33 = and i64 %32, %31
  store i64 %33, ptr %9, align 8
  %34 = load i64, ptr %9, align 8
  %35 = icmp ne i64 %34, 0
  br i1 %35, label %36, label %41

36:                                               ; preds = %21
  %37 = load i32, ptr %8, align 4
  %38 = load i64, ptr %9, align 8
  %39 = call noundef i32 @_ZN4llvm11countr_zeroImEEiT_(i64 noundef %38)
  %40 = add i32 %37, %39
  store i32 %40, ptr %3, align 4
  br label %73

41:                                               ; preds = %21
  %42 = load i32, ptr %8, align 4
  %43 = add i32 %42, 64
  store i32 %43, ptr %8, align 4
  %44 = load i32, ptr %6, align 4
  %45 = add i32 %44, 1
  store i32 %45, ptr %6, align 4
  br label %46

46:                                               ; preds = %41, %2
  %47 = load i32, ptr %6, align 4
  store i32 %47, ptr %10, align 4
  br label %48

48:                                               ; preds = %69, %46
  %49 = load i32, ptr %10, align 4
  %50 = icmp ne i32 %49, 8
  br i1 %50, label %51, label %72

51:                                               ; preds = %48
  %52 = getelementptr inbounds nuw %"struct.llvm::MachineValueTypeSet::const_iterator", ptr %12, i32 0, i32 0
  %53 = load ptr, ptr %52, align 8
  %54 = getelementptr inbounds nuw %"struct.llvm::MachineValueTypeSet", ptr %53, i32 0, i32 0
  %55 = load i32, ptr %10, align 4
  %56 = zext i32 %55 to i64
  %57 = call noundef nonnull align 8 dereferenceable(8) ptr @_ZNKSt5arrayImLm8EEixEm(ptr noundef nonnull align 8 dereferenceable(64) %54, i64 noundef %56) #4
  %58 = load i64, ptr %57, align 8
  store i64 %58, ptr %11, align 8
  %59 = load i64, ptr %11, align 8
  %60 = icmp ne i64 %59, 0
  br i1 %60, label %61, label %66

61:                                               ; preds = %51
  %62 = load i32, ptr %8, align 4
  %63 = load i64, ptr %11, align 8
  %64 = call noundef i32 @_ZN4llvm11countr_zeroImEEiT_(i64 noundef %63)
  %65 = add i32 %62, %64
  store i32 %65, ptr %3, align 4
  br label %73

66:                                               ; preds = %51
  %67 = load i32, ptr %8, align 4
  %68 = add i32 %67, 64
  store i32 %68, ptr %8, align 4
  br label %69

69:                                               ; preds = %66
  %70 = load i32, ptr %10, align 4
  %71 = add i32 %70, 1
  store i32 %71, ptr %10, align 4
  br label %48, !llvm.loop !92

72:                                               ; preds = %48
  store i32 512, ptr %3, align 4
  br label %73

73:                                               ; preds = %72, %61, %36
  %74 = load i32, ptr %3, align 4
  ret i32 %74
}

; Function Attrs: mustprogress nounwind uwtable
define internal noundef zeroext i1 @"_ZL9berase_ifIZN4llvm9TypeInfer18EnforceSmallerThanERNS0_15TypeSetByHwModeES3_bE3$_1EbRNS0_19MachineValueTypeSetET_"(ptr noundef nonnull align 8 dereferenceable(64) %0) #0 {
  %2 = alloca ptr, align 8
  %3 = alloca ptr, align 8
  %4 = alloca ptr, align 8
  %5 = alloca ptr, align 8
  %6 = alloca i8, align 1
  %7 = alloca ptr, align 8
  %8 = alloca ptr, align 8
  %9 = alloca i8, align 1
  %10 = alloca %"class.llvm::MVT", align 2
  %11 = alloca ptr, align 8
  %12 = alloca ptr, align 8
  %13 = alloca ptr, align 8
  %14 = alloca ptr, align 8
  %15 = alloca %"class.llvm::MVT", align 2
  %16 = alloca ptr, align 8
  %17 = alloca %"struct.llvm::MachineValueTypeSet::const_iterator", align 8
  %18 = alloca ptr, align 8
  %19 = alloca %"struct.llvm::MachineValueTypeSet::const_iterator", align 8
  %20 = alloca ptr, align 8
  %21 = alloca %class.anon.49, align 1
  %22 = alloca ptr, align 8
  %23 = alloca i8, align 1
  %24 = alloca ptr, align 8
  %25 = alloca %"struct.llvm::MachineValueTypeSet::const_iterator", align 8
  %26 = alloca { ptr, i32 }, align 8
  %27 = alloca %"struct.llvm::MachineValueTypeSet::const_iterator", align 8
  %28 = alloca { ptr, i32 }, align 8
  %29 = alloca %"class.llvm::MVT", align 2
  %30 = alloca %"class.llvm::MVT", align 2
  %31 = alloca %"class.llvm::MVT", align 2
  store ptr %0, ptr %22, align 8
  store i8 0, ptr %23, align 1
  %32 = load ptr, ptr %22, align 8
  store ptr %32, ptr %24, align 8
  %33 = load ptr, ptr %24, align 8
  store ptr %33, ptr %20, align 8
  %34 = load ptr, ptr %20, align 8
  store ptr %19, ptr %4, align 8
  store ptr %34, ptr %5, align 8
  store i8 0, ptr %6, align 1
  %35 = load ptr, ptr %4, align 8
  %36 = load ptr, ptr %5, align 8
  store ptr %36, ptr %35, align 8
  %37 = load i8, ptr %6, align 1
  %38 = trunc i8 %37 to i1
  br i1 %38, label %39, label %40

39:                                               ; preds = %1
  br label %42

40:                                               ; preds = %1
  %41 = call noundef i32 @_ZNK4llvm19MachineValueTypeSet14const_iterator13find_from_posEj(ptr noundef nonnull align 8 dereferenceable(12) %35, i32 noundef 0)
  br label %42

42:                                               ; preds = %40, %39
  %43 = phi i32 [ 512, %39 ], [ %41, %40 ]
  %44 = getelementptr inbounds nuw %"struct.llvm::MachineValueTypeSet::const_iterator", ptr %35, i32 0, i32 1
  store i32 %43, ptr %44, align 8
  %45 = load { ptr, i32 }, ptr %19, align 8
  store { ptr, i32 } %45, ptr %26, align 8
  call void @llvm.memcpy.p0.p0.i64(ptr align 8 %25, ptr align 8 %26, i64 12, i1 false)
  %46 = load ptr, ptr %24, align 8
  store ptr %46, ptr %18, align 8
  %47 = load ptr, ptr %18, align 8
  store ptr %17, ptr %7, align 8
  store ptr %47, ptr %8, align 8
  store i8 1, ptr %9, align 1
  %48 = load ptr, ptr %7, align 8
  %49 = load ptr, ptr %8, align 8
  store ptr %49, ptr %48, align 8
  %50 = load i8, ptr %9, align 1
  %51 = trunc i8 %50 to i1
  br i1 %51, label %52, label %53

52:                                               ; preds = %42
  br label %55

53:                                               ; preds = %42
  %54 = call noundef i32 @_ZNK4llvm19MachineValueTypeSet14const_iterator13find_from_posEj(ptr noundef nonnull align 8 dereferenceable(12) %48, i32 noundef 0)
  br label %55

55:                                               ; preds = %53, %52
  %56 = phi i32 [ 512, %52 ], [ %54, %53 ]
  %57 = getelementptr inbounds nuw %"struct.llvm::MachineValueTypeSet::const_iterator", ptr %48, i32 0, i32 1
  store i32 %56, ptr %57, align 8
  %58 = load { ptr, i32 }, ptr %17, align 8
  store { ptr, i32 } %58, ptr %28, align 8
  call void @llvm.memcpy.p0.p0.i64(ptr align 8 %27, ptr align 8 %28, i64 12, i1 false)
  br label %59

59:                                               ; preds = %106, %55
  store ptr %25, ptr %13, align 8
  store ptr %27, ptr %14, align 8
  %60 = load ptr, ptr %13, align 8
  %61 = load ptr, ptr %14, align 8
  store ptr %60, ptr %2, align 8
  store ptr %61, ptr %3, align 8
  %62 = load ptr, ptr %2, align 8
  %63 = load ptr, ptr %62, align 8
  %64 = load ptr, ptr %3, align 8
  %65 = load ptr, ptr %64, align 8
  %66 = icmp eq ptr %63, %65
  br i1 %66, label %67, label %74

67:                                               ; preds = %59
  %68 = getelementptr inbounds nuw %"struct.llvm::MachineValueTypeSet::const_iterator", ptr %62, i32 0, i32 1
  %69 = load i32, ptr %68, align 8
  %70 = load ptr, ptr %3, align 8
  %71 = getelementptr inbounds nuw %"struct.llvm::MachineValueTypeSet::const_iterator", ptr %70, i32 0, i32 1
  %72 = load i32, ptr %71, align 8
  %73 = icmp eq i32 %69, %72
  br label %74

74:                                               ; preds = %67, %59
  %75 = phi i1 [ false, %59 ], [ %73, %67 ]
  %76 = xor i1 %75, true
  br i1 %76, label %77, label %113

77:                                               ; preds = %74
  store ptr %25, ptr %16, align 8
  %78 = load ptr, ptr %16, align 8
  %79 = getelementptr inbounds nuw %"struct.llvm::MachineValueTypeSet::const_iterator", ptr %78, i32 0, i32 1
  %80 = load i32, ptr %79, align 8
  %81 = trunc i32 %80 to i16
  call void @_ZN4llvm3MVTC2ENS0_15SimpleValueTypeE(ptr noundef nonnull align 2 dereferenceable(2) %15, i16 noundef zeroext %81)
  %82 = load i16, ptr %15, align 2
  %83 = getelementptr inbounds nuw %"class.llvm::MVT", ptr %29, i32 0, i32 0
  store i16 %82, ptr %83, align 2
  call void @llvm.memcpy.p0.p0.i64(ptr align 2 %30, ptr align 2 %29, i64 2, i1 false)
  %84 = getelementptr inbounds nuw %"class.llvm::MVT", ptr %30, i32 0, i32 0
  %85 = load i16, ptr %84, align 2
  %86 = call noundef zeroext i1 @"_ZZN4llvm9TypeInfer18EnforceSmallerThanERNS_15TypeSetByHwModeES2_bENK3$_1clENS_3MVTE"(ptr noundef nonnull align 1 dereferenceable(1) %21, i16 %85)
  br i1 %86, label %88, label %87

87:                                               ; preds = %77
  br label %106

88:                                               ; preds = %77
  store i8 1, ptr %23, align 1
  %89 = load ptr, ptr %22, align 8
  call void @llvm.memcpy.p0.p0.i64(ptr align 2 %31, ptr align 2 %29, i64 2, i1 false)
  %90 = getelementptr inbounds nuw %"class.llvm::MVT", ptr %31, i32 0, i32 0
  %91 = load i16, ptr %90, align 2
  store i16 %91, ptr %10, align 2
  store ptr %89, ptr %11, align 8
  %92 = load ptr, ptr %11, align 8
  %93 = load i16, ptr %10, align 2
  %94 = zext i16 %93 to i32
  %95 = urem i32 %94, 64
  %96 = zext i32 %95 to i64
  %97 = shl i64 1, %96
  %98 = xor i64 %97, -1
  %99 = load i16, ptr %10, align 2
  %100 = zext i16 %99 to i32
  %101 = udiv i32 %100, 64
  %102 = zext i32 %101 to i64
  %103 = call noundef nonnull align 8 dereferenceable(8) ptr @_ZNSt5arrayImLm8EEixEm(ptr noundef nonnull align 8 dereferenceable(64) %92, i64 noundef %102) #4
  %104 = load i64, ptr %103, align 8
  %105 = and i64 %104, %98
  store i64 %105, ptr %103, align 8
  br label %106

106:                                              ; preds = %88, %87
  store ptr %25, ptr %12, align 8
  %107 = load ptr, ptr %12, align 8
  %108 = getelementptr inbounds nuw %"struct.llvm::MachineValueTypeSet::const_iterator", ptr %107, i32 0, i32 1
  %109 = load i32, ptr %108, align 8
  %110 = add i32 %109, 1
  %111 = call noundef i32 @_ZNK4llvm19MachineValueTypeSet14const_iterator13find_from_posEj(ptr noundef nonnull align 8 dereferenceable(12) %107, i32 noundef %110)
  %112 = getelementptr inbounds nuw %"struct.llvm::MachineValueTypeSet::const_iterator", ptr %107, i32 0, i32 1
  store i32 %111, ptr %112, align 8
  br label %59

113:                                              ; preds = %74
  %114 = load i8, ptr %23, align 1
  %115 = trunc i8 %114 to i1
  ret i1 %115
}