; Function Attrs: mustprogress nofree norecurse nosync nounwind memory(argmem: readwrite) uwtable
define internal fastcc noundef zeroext i1 @"_ZL9berase_ifIZN4llvm9TypeInfer18EnforceSmallerThanERNS0_15TypeSetByHwModeES3_bE3$_1EbRNS0_19MachineValueTypeSetET_"(ptr nocapture noundef nonnull align 8 dereferenceable(64) %0) unnamed_addr #7 {
  br label %2

2:                                                ; preds = %6, %1
  %.02133.i = phi i32 [ 0, %1 ], [ %8, %6 ]
  %.132.i = phi i32 [ 0, %1 ], [ %7, %6 ]
  %3 = zext nneg i32 %.02133.i to i64
  %4 = getelementptr inbounds [8 x i64], ptr %0, i64 0, i64 %3
  %5 = load i64, ptr %4, align 8
  %.not29.i = icmp eq i64 %5, 0
  br i1 %.not29.i, label %6, label %_ZNK4llvm19MachineValueTypeSet14const_iterator13find_from_posEj.exit

6:                                                ; preds = %2
  %7 = add nuw nsw i32 %.132.i, 64
  %8 = add nuw nsw i32 %.02133.i, 1
  %.not28.i = icmp eq i32 %8, 8
  br i1 %.not28.i, label %._crit_edge, label %2, !llvm.loop !4

_ZNK4llvm19MachineValueTypeSet14const_iterator13find_from_posEj.exit: ; preds = %2
  %9 = tail call range(i64 0, 65) i64 @llvm.cttz.i64(i64 %5, i1 true)
  %10 = trunc nuw nsw i64 %9 to i32
  %11 = or disjoint i32 %.132.i, %10
  %.not55 = icmp eq i32 %11, 512
  br i1 %.not55, label %._crit_edge, label %.lr.ph

.lr.ph:                                           ; preds = %_ZNK4llvm19MachineValueTypeSet14const_iterator13find_from_posEj.exit, %_ZNK4llvm19MachineValueTypeSet14const_iterator13find_from_posEj.exit41
  %.057 = phi i1 [ %.1, %_ZNK4llvm19MachineValueTypeSet14const_iterator13find_from_posEj.exit41 ], [ false, %_ZNK4llvm19MachineValueTypeSet14const_iterator13find_from_posEj.exit ]
  %.sroa.4.056 = phi i32 [ %.0.i36, %_ZNK4llvm19MachineValueTypeSet14const_iterator13find_from_posEj.exit41 ], [ %11, %_ZNK4llvm19MachineValueTypeSet14const_iterator13find_from_posEj.exit ]
  %12 = trunc i32 %.sroa.4.056 to i16
  %13 = add i16 %12, -17
  %or.cond.i.i.i = icmp ult i16 %13, -7
  %14 = add i16 %12, -137
  %or.cond3.i.i.i = icmp ult i16 %14, -49
  %or.cond4.i.i.i.not49 = and i1 %or.cond.i.i.i, %or.cond3.i.i.i
  %15 = add i16 %12, -190
  %spec.select.i.i.i = icmp ult i16 %15, -21
  %or.cond = and i1 %spec.select.i.i.i, %or.cond4.i.i.i.not49
  br i1 %or.cond, label %16, label %"_ZZN4llvm9TypeInfer18EnforceSmallerThanERNS_15TypeSetByHwModeES2_bENK3$_1clENS_3MVTE.exit.thread"

16:                                               ; preds = %.lr.ph
  %17 = and i32 %.sroa.4.056, 63
  %18 = zext nneg i32 %17 to i64
  %19 = shl nuw i64 1, %18
  %20 = xor i64 %19, -1
  %21 = lshr i32 %.sroa.4.056, 6
  %22 = and i32 %21, 1023
  %23 = zext nneg i32 %22 to i64
  %24 = getelementptr inbounds [8 x i64], ptr %0, i64 0, i64 %23
  %25 = load i64, ptr %24, align 8
  %26 = and i64 %25, %20
  store i64 %26, ptr %24, align 8
  br label %"_ZZN4llvm9TypeInfer18EnforceSmallerThanERNS_15TypeSetByHwModeES2_bENK3$_1clENS_3MVTE.exit.thread"

"_ZZN4llvm9TypeInfer18EnforceSmallerThanERNS_15TypeSetByHwModeES2_bENK3$_1clENS_3MVTE.exit.thread": ; preds = %.lr.ph, %16
  %.1 = phi i1 [ true, %16 ], [ %.057, %.lr.ph ]
  %27 = add i32 %.sroa.4.056, 1
  %28 = lshr i32 %27, 6
  %29 = and i32 %27, 63
  %30 = and i32 %27, -64
  %.not.i = icmp eq i32 %29, 0
  br i1 %.not.i, label %47, label %31

31:                                               ; preds = %"_ZZN4llvm9TypeInfer18EnforceSmallerThanERNS_15TypeSetByHwModeES2_bENK3$_1clENS_3MVTE.exit.thread"
  %32 = zext nneg i32 %28 to i64
  %33 = getelementptr inbounds [8 x i64], ptr %0, i64 0, i64 %32
  %34 = load i64, ptr %33, align 8
  %35 = sub nuw nsw i32 64, %29
  %36 = zext nneg i32 %35 to i64
  %37 = lshr i64 -1, %36
  %38 = xor i64 %37, -1
  %39 = and i64 %34, %38
  %.not27.i = icmp eq i64 %39, 0
  br i1 %.not27.i, label %44, label %40

40:                                               ; preds = %31
  %41 = tail call range(i64 0, 65) i64 @llvm.cttz.i64(i64 %39, i1 true)
  %42 = trunc nuw nsw i64 %41 to i32
  %43 = or disjoint i32 %30, %42
  br label %_ZNK4llvm19MachineValueTypeSet14const_iterator13find_from_posEj.exit41

44:                                               ; preds = %31
  %45 = add i32 %30, 64
  %46 = add nuw nsw i32 %28, 1
  br label %47

47:                                               ; preds = %44, %"_ZZN4llvm9TypeInfer18EnforceSmallerThanERNS_15TypeSetByHwModeES2_bENK3$_1clENS_3MVTE.exit.thread"
  %.023.i = phi i32 [ %46, %44 ], [ %28, %"_ZZN4llvm9TypeInfer18EnforceSmallerThanERNS_15TypeSetByHwModeES2_bENK3$_1clENS_3MVTE.exit.thread" ]
  %.022.i = phi i32 [ %45, %44 ], [ %30, %"_ZZN4llvm9TypeInfer18EnforceSmallerThanERNS_15TypeSetByHwModeES2_bENK3$_1clENS_3MVTE.exit.thread" ]
  %.not2831.i = icmp eq i32 %.023.i, 8
  br i1 %.not2831.i, label %._crit_edge, label %.lr.ph.i

.lr.ph.i:                                         ; preds = %47, %55
  %.02133.i37 = phi i32 [ %57, %55 ], [ %.023.i, %47 ]
  %.132.i38 = phi i32 [ %56, %55 ], [ %.022.i, %47 ]
  %48 = zext i32 %.02133.i37 to i64
  %49 = getelementptr inbounds [8 x i64], ptr %0, i64 0, i64 %48
  %50 = load i64, ptr %49, align 8
  %.not29.i39 = icmp eq i64 %50, 0
  br i1 %.not29.i39, label %55, label %51

51:                                               ; preds = %.lr.ph.i
  %52 = tail call range(i64 0, 65) i64 @llvm.cttz.i64(i64 %50, i1 true)
  %53 = trunc nuw nsw i64 %52 to i32
  %54 = add i32 %.132.i38, %53
  br label %_ZNK4llvm19MachineValueTypeSet14const_iterator13find_from_posEj.exit41

55:                                               ; preds = %.lr.ph.i
  %56 = add i32 %.132.i38, 64
  %57 = add i32 %.02133.i37, 1
  %.not28.i40 = icmp eq i32 %57, 8
  br i1 %.not28.i40, label %._crit_edge, label %.lr.ph.i, !llvm.loop !4

_ZNK4llvm19MachineValueTypeSet14const_iterator13find_from_posEj.exit41: ; preds = %40, %51
  %.0.i36 = phi i32 [ %43, %40 ], [ %54, %51 ]
  %.not = icmp eq i32 %.0.i36, 512
  br i1 %.not, label %._crit_edge, label %.lr.ph

._crit_edge:                                      ; preds = %6, %47, %_ZNK4llvm19MachineValueTypeSet14const_iterator13find_from_posEj.exit41, %55, %_ZNK4llvm19MachineValueTypeSet14const_iterator13find_from_posEj.exit
  %.0.lcssa = phi i1 [ false, %_ZNK4llvm19MachineValueTypeSet14const_iterator13find_from_posEj.exit ], [ %.1, %55 ], [ %.1, %_ZNK4llvm19MachineValueTypeSet14const_iterator13find_from_posEj.exit41 ], [ %.1, %47 ], [ false, %6 ]
  ret i1 %.0.lcssa
}